target datalayout = "e-m:e-p270:32:32-p271:32:32-p272:64:64-i64:64-i128:128-f80:128-n8:16:32:64-S128"
target triple = "x86_64-pc-linux-gnu"

%struct.prolog_state = type { ptr, i32, i32 }
%struct.encoding = type { [3 x ptr], [2 x ptr], ptr, ptr, ptr, ptr, ptr, ptr, ptr, ptr, ptr, ptr, i32, i8, i8 }

@KW_PCDATA = internal constant [7 x i8] c"PCDATA\00", align 1

; Function Attrs: nounwind uwtable
define internal i32 @common(ptr noundef %0, i32 noundef %1) #0 {
  %3 = alloca ptr, align 8
  %4 = alloca i32, align 4
  store ptr %0, ptr %3, align 8, !tbaa !4
  store i32 %1, ptr %4, align 4, !tbaa !12
  %5 = load ptr, ptr %3, align 8, !tbaa !4
  %6 = getelementptr inbounds nuw %struct.prolog_state, ptr %5, i32 0, i32 0
  store ptr @error, ptr %6, align 8, !tbaa !9
  ret i32 -1
}

; Function Attrs: nounwind uwtable
define internal i32 @element2(ptr noundef %0, i32 noundef %1, ptr noundef %2, ptr noundef %3, ptr noundef %4) #0 {
  %6 = alloca i32, align 4
  %7 = alloca ptr, align 8
  %8 = alloca i32, align 4
  %9 = alloca ptr, align 8
  %10 = alloca ptr, align 8
  %11 = alloca ptr, align 8
  store ptr %0, ptr %7, align 8, !tbaa !4
  store i32 %1, ptr %8, align 4, !tbaa !12
  store ptr %2, ptr %9, align 8, !tbaa !13
  store ptr %3, ptr %10, align 8, !tbaa !13
  store ptr %4, ptr %11, align 8, !tbaa !15
  %12 = load i32, ptr %8, align 4, !tbaa !12
  switch i32 %12, label %49 [
    i32 15, label %13
    i32 20, label %14
    i32 23, label %32
    i32 18, label %37
    i32 41, label %37
    i32 30, label %40
    i32 31, label %43
    i32 32, label %46
  ]

13:                                               ; preds = %5
  store i32 39, ptr %6, align 4
  br label %53

14:                                               ; preds = %5
  %15 = load ptr, ptr %11, align 8, !tbaa !15
  %16 = getelementptr inbounds nuw %struct.encoding, ptr %15, i32 0, i32 2
  %17 = load ptr, ptr %16, align 8, !tbaa !17
  %18 = load ptr, ptr %11, align 8, !tbaa !15
  %19 = load ptr, ptr %9, align 8, !tbaa !13
  %20 = load ptr, ptr %11, align 8, !tbaa !15
  %21 = getelementptr inbounds nuw %struct.encoding, ptr %20, i32 0, i32 12
  %22 = load i32, ptr %21, align 8, !tbaa !19
  %23 = sext i32 %22 to i64
  %24 = getelementptr inbounds i8, ptr %19, i64 %23
  %25 = load ptr, ptr %10, align 8, !tbaa !13
  %26 = call i32 %17(ptr noundef %18, ptr noundef %24, ptr noundef %25, ptr noundef @KW_PCDATA)
  %27 = icmp ne i32 %26, 0
  br i1 %27, label %28, label %31

28:                                               ; preds = %14
  %29 = load ptr, ptr %7, align 8, !tbaa !4
  %30 = getelementptr inbounds nuw %struct.prolog_state, ptr %29, i32 0, i32 0
  store ptr @element3, ptr %30, align 8, !tbaa !9
  store i32 43, ptr %6, align 4
  br label %53

31:                                               ; preds = %14
  br label %49

32:                                               ; preds = %5
  %33 = load ptr, ptr %7, align 8, !tbaa !4
  %34 = getelementptr inbounds nuw %struct.prolog_state, ptr %33, i32 0, i32 1
  store i32 2, ptr %34, align 8, !tbaa !23
  %35 = load ptr, ptr %7, align 8, !tbaa !4
  %36 = getelementptr inbounds nuw %struct.prolog_state, ptr %35, i32 0, i32 0
  store ptr @element6, ptr %36, align 8, !tbaa !9
  store i32 44, ptr %6, align 4
  br label %53

37:                                               ; preds = %5, %5
  %38 = load ptr, ptr %7, align 8, !tbaa !4
  %39 = getelementptr inbounds nuw %struct.prolog_state, ptr %38, i32 0, i32 0
  store ptr @element7, ptr %39, align 8, !tbaa !9
  store i32 51, ptr %6, align 4
  br label %53

40:                                               ; preds = %5
  %41 = load ptr, ptr %7, align 8, !tbaa !4
  %42 = getelementptr inbounds nuw %struct.prolog_state, ptr %41, i32 0, i32 0
  store ptr @element7, ptr %42, align 8, !tbaa !9
  store i32 53, ptr %6, align 4
  br label %53

43:                                               ; preds = %5
  %44 = load ptr, ptr %7, align 8, !tbaa !4
  %45 = getelementptr inbounds nuw %struct.prolog_state, ptr %44, i32 0, i32 0
  store ptr @element7, ptr %45, align 8, !tbaa !9
  store i32 52, ptr %6, align 4
  br label %53

46:                                               ; preds = %5
  %47 = load ptr, ptr %7, align 8, !tbaa !4
  %48 = getelementptr inbounds nuw %struct.prolog_state, ptr %47, i32 0, i32 0
  store ptr @element7, ptr %48, align 8, !tbaa !9
  store i32 54, ptr %6, align 4
  br label %53

49:                                               ; preds = %5, %31
  %50 = load ptr, ptr %7, align 8, !tbaa !4
  %51 = load i32, ptr %8, align 4, !tbaa !12
  %52 = call i32 @common(ptr noundef %50, i32 noundef %51)
  store i32 %52, ptr %6, align 4
  br label %53

53:                                               ; preds = %49, %46, %43, %40, %37, %32, %28, %13
  %54 = load i32, ptr %6, align 4
  ret i32 %54
}