; Function Attrs: nounwind uwtable
define internal range(i32 -1, 55) i32 @element2(ptr noundef writeonly captures(none) %0, i32 noundef %1, ptr noundef %2, ptr noundef %3, ptr noundef %4) #1 {
  switch i32 %1, label %19 [
    i32 15, label %20
    i32 20, label %6
    i32 23, label %14
    i32 18, label %.sink.split
    i32 41, label %.sink.split
    i32 30, label %16
    i32 31, label %17
    i32 32, label %18
  ]

6:                                                ; preds = %5
  %7 = getelementptr inbounds nuw i8, ptr %4, i64 40
  %8 = load ptr, ptr %7, align 8, !tbaa !10
  %9 = getelementptr inbounds nuw i8, ptr %4, i64 120
  %10 = load i32, ptr %9, align 8, !tbaa !12
  %11 = sext i32 %10 to i64
  %12 = getelementptr inbounds i8, ptr %2, i64 %11
  %13 = tail call i32 %8(ptr noundef %4, ptr noundef %12, ptr noundef %3, ptr noundef nonnull @KW_PCDATA) #5
  %.not = icmp eq i32 %13, 0
  br i1 %.not, label %19, label %.sink.split

14:                                               ; preds = %5
  %15 = getelementptr inbounds nuw i8, ptr %0, i64 8
  store i32 2, ptr %15, align 8, !tbaa !18
  br label %.sink.split

16:                                               ; preds = %5
  br label %.sink.split

17:                                               ; preds = %5
  br label %.sink.split

18:                                               ; preds = %5
  br label %.sink.split

19:                                               ; preds = %6, %5
  br label %.sink.split

.sink.split:                                      ; preds = %5, %5, %6, %14, %16, %17, %18, %19
  %error.sink = phi ptr [ @error, %19 ], [ @element7, %18 ], [ @element7, %17 ], [ @element7, %16 ], [ @element6, %14 ], [ @element3, %6 ], [ @element7, %5 ], [ @element7, %5 ]
  %.0.ph = phi i32 [ -1, %19 ], [ 54, %18 ], [ 52, %17 ], [ 53, %16 ], [ 44, %14 ], [ 43, %6 ], [ 51, %5 ], [ 51, %5 ]
  store ptr %error.sink, ptr %0, align 8, !tbaa !4
  br label %20

20:                                               ; preds = %.sink.split, %5
  %.0 = phi i32 [ 39, %5 ], [ %.0.ph, %.sink.split ]
  ret i32 %.0
}